target datalayout = "e-m:e-p270:32:32-p271:32:32-p272:64:64-i64:64-i128:128-f80:128-n8:16:32:64-S128"
target triple = "x86_64-pc-linux-gnu"

%struct._packet_info = type { ptr, ptr, i32, i32, %struct.nstime_t, %struct.nstime_t, %struct.nstime_t, i8, ptr, ptr, ptr, ptr, %struct._address, %struct._address, %struct._address, %struct._address, %struct._address, %struct._address, i32, ptr, i8, [3 x i8], %struct.anon, i32, i32, i32, i32, ptr, i8, ptr, ptr, i16, i16, i32, i32, i16, i32, i32, ptr, ptr, ptr, i8, i8, i16, i16, i16, i32, i16, i16, ptr, ptr, ptr, ptr, ptr, i32, i32 }
%struct.nstime_t = type { i64, i32 }
%struct._address = type { i32, i32, ptr, ptr }
%struct.anon = type { i8, [3 x i8] }

@hf_nas_eps_gen_msg_cont = internal global i32 0, align 4
@ett_nas_eps_gen_msg_cont = internal global i32 0, align 4
@proto_nas_eps = internal global i32 0, align 4
@gsm_a_dtap_handle = internal global ptr null, align 8
@lpp_handle = internal global ptr null, align 8

; Function Attrs: null_pointer_is_valid sspstrong uwtable
define internal zeroext i16 @de_emm_gen_msg_cont(ptr noundef %0, ptr noundef %1, ptr noundef %2, i32 noundef %3, i32 noundef %4, ptr noundef %5, i32 noundef %6) #1 {
  %8 = alloca ptr, align 8
  %9 = alloca ptr, align 8
  %10 = alloca ptr, align 8
  %11 = alloca i32, align 4
  %12 = alloca i32, align 4
  %13 = alloca ptr, align 8
  %14 = alloca i32, align 4
  %15 = alloca ptr, align 8
  %16 = alloca ptr, align 8
  %17 = alloca ptr, align 8
  store ptr %0, ptr %8, align 8
  store ptr %1, ptr %9, align 8
  store ptr %2, ptr %10, align 8
  store i32 %3, ptr %11, align 4
  store i32 %4, ptr %12, align 4
  store ptr %5, ptr %13, align 8
  store i32 %6, ptr %14, align 4
  call void @llvm.lifetime.start.p0(i64 8, ptr %15) #10
  call void @llvm.lifetime.start.p0(i64 8, ptr %16) #10
  call void @llvm.lifetime.start.p0(i64 8, ptr %17) #10
  %18 = load ptr, ptr %9, align 8
  %19 = load i32, ptr @hf_nas_eps_gen_msg_cont, align 4
  %20 = load ptr, ptr %8, align 8
  %21 = load i32, ptr %11, align 4
  %22 = load i32, ptr %12, align 4
  %23 = call ptr @proto_tree_add_item(ptr noundef %18, i32 noundef %19, ptr noundef %20, i32 noundef %21, i32 noundef %22, i32 noundef 0)
  store ptr %23, ptr %15, align 8
  %24 = load ptr, ptr %15, align 8
  %25 = load i32, ptr @ett_nas_eps_gen_msg_cont, align 4
  %26 = call ptr @proto_item_add_subtree(ptr noundef %24, i32 noundef %25)
  store ptr %26, ptr %16, align 8
  %27 = load ptr, ptr %8, align 8
  %28 = load i32, ptr %11, align 4
  %29 = load i32, ptr %12, align 4
  %30 = call ptr @tvb_new_subset_length(ptr noundef %27, i32 noundef %28, i32 noundef %29)
  store ptr %30, ptr %17, align 8
  %31 = load ptr, ptr %10, align 8
  %32 = getelementptr inbounds nuw %struct._packet_info, ptr %31, i32 0, i32 51
  %33 = load ptr, ptr %32, align 8
  %34 = load ptr, ptr %10, align 8
  %35 = load i32, ptr @proto_nas_eps, align 4
  %36 = call ptr @p_get_proto_data(ptr noundef %33, ptr noundef %34, i32 noundef %35, i32 noundef 0)
  %37 = ptrtoint ptr %36 to i64
  %38 = trunc i64 %37 to i32
  switch i32 %38, label %59 [
    i32 1, label %39
    i32 2, label %49
  ]

39:                                               ; preds = %7
  %40 = load ptr, ptr @lpp_handle, align 8
  %41 = icmp ne ptr %40, null
  br i1 %41, label %42, label %48

42:                                               ; preds = %39
  %43 = load ptr, ptr @lpp_handle, align 8
  %44 = load ptr, ptr %17, align 8
  %45 = load ptr, ptr %10, align 8
  %46 = load ptr, ptr %16, align 8
  %47 = call i32 @call_dissector(ptr noundef %43, ptr noundef %44, ptr noundef %45, ptr noundef %46)
  br label %48

48:                                               ; preds = %42, %39
  br label %60

49:                                               ; preds = %7
  %50 = load ptr, ptr @gsm_a_dtap_handle, align 8
  %51 = icmp ne ptr %50, null
  br i1 %51, label %52, label %58

52:                                               ; preds = %49
  %53 = load ptr, ptr @gsm_a_dtap_handle, align 8
  %54 = load ptr, ptr %17, align 8
  %55 = load ptr, ptr %10, align 8
  %56 = load ptr, ptr %16, align 8
  %57 = call i32 @call_dissector(ptr noundef %53, ptr noundef %54, ptr noundef %55, ptr noundef %56)
  br label %58

58:                                               ; preds = %52, %49
  br label %60

59:                                               ; preds = %7
  br label %60

60:                                               ; preds = %59, %58, %48
  %61 = load i32, ptr %12, align 4
  %62 = trunc i32 %61 to i16
  call void @llvm.lifetime.end.p0(i64 8, ptr %17) #10
  call void @llvm.lifetime.end.p0(i64 8, ptr %16) #10
  call void @llvm.lifetime.end.p0(i64 8, ptr %15) #10
  ret i16 %62
}