; Function Attrs: null_pointer_is_valid sspstrong uwtable
define internal noundef zeroext i16 @de_emm_gen_msg_cont(ptr noundef %0, ptr noundef %1, ptr noundef %2, i32 noundef %3, i32 noundef %4, ptr readnone captures(none) %5, i32 %6) #1 {
  %8 = load i32, ptr @hf_nas_eps_gen_msg_cont, align 4
  %9 = tail call ptr @proto_tree_add_item(ptr noundef %1, i32 noundef %8, ptr noundef %0, i32 noundef %3, i32 noundef %4, i32 noundef 0)
  %10 = load i32, ptr @ett_nas_eps_gen_msg_cont, align 4
  %11 = tail call ptr @proto_item_add_subtree(ptr noundef %9, i32 noundef %10)
  %12 = tail call ptr @tvb_new_subset_length(ptr noundef %0, i32 noundef %3, i32 noundef %4)
  %13 = getelementptr inbounds nuw i8, ptr %2, i64 408
  %14 = load ptr, ptr %13, align 8
  %15 = load i32, ptr @proto_nas_eps, align 4
  %16 = tail call ptr @p_get_proto_data(ptr noundef %14, ptr noundef %2, i32 noundef %15, i32 noundef 0)
  %17 = ptrtoint ptr %16 to i64
  %18 = trunc i64 %17 to i32
  switch i32 %18, label %24 [
    i32 1, label %19
    i32 2, label %21
  ]

19:                                               ; preds = %7
  %20 = load ptr, ptr @lpp_handle, align 8
  %.not17 = icmp eq ptr %20, null
  br i1 %.not17, label %24, label %.sink.split

21:                                               ; preds = %7
  %22 = load ptr, ptr @gsm_a_dtap_handle, align 8
  %.not = icmp eq ptr %22, null
  br i1 %.not, label %24, label %.sink.split

.sink.split:                                      ; preds = %21, %19
  %.sink = phi ptr [ %20, %19 ], [ %22, %21 ]
  %23 = tail call i32 @call_dissector(ptr noundef nonnull %.sink, ptr noundef %12, ptr noundef %2, ptr noundef %11)
  br label %24

24:                                               ; preds = %.sink.split, %7, %21, %19
  %25 = trunc i32 %4 to i16
  ret i16 %25
}